opt subtitle "HI-TECH Software Omniscient Code Generator (Lite mode) build 7503"

opt pagewidth 120

	opt lm

	processor	16F877A
clrc	macro
	bcf	3,0
	endm
clrz	macro
	bcf	3,2
	endm
setc	macro
	bsf	3,0
	endm
setz	macro
	bsf	3,2
	endm
skipc	macro
	btfss	3,0
	endm
skipz	macro
	btfss	3,2
	endm
skipnc	macro
	btfsc	3,0
	endm
skipnz	macro
	btfsc	3,2
	endm
indf	equ	0
indf0	equ	0
pc	equ	2
pcl	equ	2
status	equ	3
fsr	equ	4
fsr0	equ	4
c	equ	1
z	equ	0
pclath	equ	10
# 2 "G:\PIC ass\7SEGMENT\7seg1.c"
	psect config,class=CONFIG,delta=2 ;#
# 2 "G:\PIC ass\7SEGMENT\7seg1.c"
	dw 0x1f7a ;#
	FNROOT	_main
	global	_PORTD
psect	maintext,global,class=CODE,delta=2
global __pmaintext
__pmaintext:
_PORTD	set	8
	global	_TRISD
_TRISD	set	136
	file	"7seg01.as"
	line	#
psect cinit,class=CODE,delta=2
global start_initialization
start_initialization:

psect cinit,class=CODE,delta=2
global end_of_initialization

;End of C runtime variable initialization code

end_of_initialization:
clrf status
ljmp _main	;jump to C main() function
psect	cstackCOMMON,class=COMMON,space=1
global __pcstackCOMMON
__pcstackCOMMON:
	global	?_main
?_main:	; 0 bytes @ 0x0
	global	??_main
??_main:	; 0 bytes @ 0x0
	ds	3
;;Data sizes: Strings 0, constant 0, data 0, bss 0, persistent 0 stack 0
;;Auto spaces:   Size  Autos    Used
;; COMMON          14      3       3
;; BANK0           80      0       0
;; BANK1           80      0       0
;; BANK3           96      0       0
;; BANK2           96      0       0

;;
;; Pointer list with targets:



;;
;; Critical Paths under _main in COMMON
;;
;;   None.
;;
;; Critical Paths under _main in BANK0
;;
;;   None.
;;
;; Critical Paths under _main in BANK1
;;
;;   None.
;;
;; Critical Paths under _main in BANK3
;;
;;   None.
;;
;; Critical Paths under _main in BANK2
;;
;;   None.

;;
;;Main: autosize = 0, tempsize = 3, incstack = 0, save=0
;;

;;
;;Call Graph Tables:
;;
;; ---------------------------------------------------------------------------------
;; (Depth) Function   	        Calls       Base Space   Used Autos Params    Refs
;; ---------------------------------------------------------------------------------
;; (0) _main                                                 3     3      0       0
;;                                              0 COMMON     3     3      0
;; ---------------------------------------------------------------------------------
;; Estimated maximum stack depth 0
;; ---------------------------------------------------------------------------------

;; Call Graph Graphs:

;; _main (ROOT)
;;

;; Address spaces:

;;Name               Size   Autos  Total    Cost      Usage
;;BITCOMMON            E      0       0       0        0.0%
;;EEDATA             100      0       0       0        0.0%
;;NULL                 0      0       0       0        0.0%
;;CODE                 0      0       0       0        0.0%
;;COMMON               E      3       3       1       21.4%
;;BITSFR0              0      0       0       1        0.0%
;;SFR0                 0      0       0       1        0.0%
;;BITSFR1              0      0       0       2        0.0%
;;SFR1                 0      0       0       2        0.0%
;;STACK                0      0       0       2        0.0%
;;ABS                  0      0       0       3        0.0%
;;BITBANK0            50      0       0       4        0.0%
;;BITSFR3              0      0       0       4        0.0%
;;SFR3                 0      0       0       4        0.0%
;;BANK0               50      0       0       5        0.0%
;;BITSFR2              0      0       0       5        0.0%
;;SFR2                 0      0       0       5        0.0%
;;BITBANK1            50      0       0       6        0.0%
;;BANK1               50      0       0       7        0.0%
;;BITBANK3            60      0       0       8        0.0%
;;BANK3               60      0       0       9        0.0%
;;BITBANK2            60      0       0      10        0.0%
;;BANK2               60      0       0      11        0.0%
;;DATA                 0      0       0      12        0.0%

	global	_main
psect	maintext

;; *************** function _main *****************
;; Defined at:
;;		line 5 in file "G:\PIC ass\7SEGMENT\7seg1.c"
;; Parameters:    Size  Location     Type
;;		None
;; Auto vars:     Size  Location     Type
;;		None
;; Return value:  Size  Location     Type
;;		None               void
;; Registers used:
;;		wreg, status,2
;; Tracked objects:
;;		On entry : 17F/0
;;		On exit  : 0/0
;;		Unchanged: 0/0
;; Data sizes:     COMMON   BANK0   BANK1   BANK3   BANK2
;;      Params:         0       0       0       0       0
;;      Locals:         0       0       0       0       0
;;      Temps:          3       0       0       0       0
;;      Totals:         3       0       0       0       0
;;Total ram usage:        3 bytes
;; This function calls:
;;		Nothing
;; This function is called by:
;;		Startup code after reset
;; This function uses a non-reentrant model
;;
psect	maintext
	file	"G:\PIC ass\7SEGMENT\7seg1.c"
	line	5
	global	__size_of_main
	__size_of_main	equ	__end_of_main-_main
	
_main:	
	opt	stack 8
; Regs used in _main: [wreg+status,2]
	line	6
	
l1825:	
;7seg1.c: 6: TRISD=0;
	bsf	status, 5	;RP0=1, select bank1
	bcf	status, 6	;RP1=0, select bank1
	clrf	(136)^080h	;volatile
	goto	l1827
	line	7
;7seg1.c: 7: while(1)
	
l687:	
	line	9
	
l1827:	
;7seg1.c: 8: {
;7seg1.c: 9: PORTD=0b11000000;
	movlw	(0C0h)
	bcf	status, 5	;RP0=0, select bank0
	bcf	status, 6	;RP1=0, select bank0
	movwf	(8)	;volatile
	line	10
	
l1829:	
;7seg1.c: 10: _delay((unsigned long)((500)*(20000000/4000.0)));
	opt asmopt_off
movlw  13
movwf	((??_main+0)+0+2),f
movlw	163
movwf	((??_main+0)+0+1),f
	movlw	189
movwf	((??_main+0)+0),f
u2147:
	decfsz	((??_main+0)+0),f
	goto	u2147
	decfsz	((??_main+0)+0+1),f
	goto	u2147
	decfsz	((??_main+0)+0+2),f
	goto	u2147
	clrwdt
opt asmopt_on

	line	12
	
l1831:	
;7seg1.c: 12: PORTD=0b11111001;
	movlw	(0F9h)
	bcf	status, 5	;RP0=0, select bank0
	bcf	status, 6	;RP1=0, select bank0
	movwf	(8)	;volatile
	line	13
	
l1833:	
;7seg1.c: 13: _delay((unsigned long)((500)*(20000000/4000.0)));
	opt asmopt_off
movlw  13
movwf	((??_main+0)+0+2),f
movlw	163
movwf	((??_main+0)+0+1),f
	movlw	189
movwf	((??_main+0)+0),f
u2157:
	decfsz	((??_main+0)+0),f
	goto	u2157
	decfsz	((??_main+0)+0+1),f
	goto	u2157
	decfsz	((??_main+0)+0+2),f
	goto	u2157
	clrwdt
opt asmopt_on

	line	15
	
l1835:	
;7seg1.c: 15: PORTD=0b10100100;
	movlw	(0A4h)
	bcf	status, 5	;RP0=0, select bank0
	bcf	status, 6	;RP1=0, select bank0
	movwf	(8)	;volatile
	line	16
	
l1837:	
;7seg1.c: 16: _delay((unsigned long)((500)*(20000000/4000.0)));
	opt asmopt_off
movlw  13
movwf	((??_main+0)+0+2),f
movlw	163
movwf	((??_main+0)+0+1),f
	movlw	189
movwf	((??_main+0)+0),f
u2167:
	decfsz	((??_main+0)+0),f
	goto	u2167
	decfsz	((??_main+0)+0+1),f
	goto	u2167
	decfsz	((??_main+0)+0+2),f
	goto	u2167
	clrwdt
opt asmopt_on

	line	18
	
l1839:	
;7seg1.c: 18: PORTD=0b10110000;
	movlw	(0B0h)
	bcf	status, 5	;RP0=0, select bank0
	bcf	status, 6	;RP1=0, select bank0
	movwf	(8)	;volatile
	line	19
	
l1841:	
;7seg1.c: 19: _delay((unsigned long)((500)*(20000000/4000.0)));
	opt asmopt_off
movlw  13
movwf	((??_main+0)+0+2),f
movlw	163
movwf	((??_main+0)+0+1),f
	movlw	189
movwf	((??_main+0)+0),f
u2177:
	decfsz	((??_main+0)+0),f
	goto	u2177
	decfsz	((??_main+0)+0+1),f
	goto	u2177
	decfsz	((??_main+0)+0+2),f
	goto	u2177
	clrwdt
opt asmopt_on

	line	21
	
l1843:	
;7seg1.c: 21: PORTD=0b10011001;
	movlw	(099h)
	bcf	status, 5	;RP0=0, select bank0
	bcf	status, 6	;RP1=0, select bank0
	movwf	(8)	;volatile
	line	22
	
l1845:	
;7seg1.c: 22: _delay((unsigned long)((500)*(20000000/4000.0)));
	opt asmopt_off
movlw  13
movwf	((??_main+0)+0+2),f
movlw	163
movwf	((??_main+0)+0+1),f
	movlw	189
movwf	((??_main+0)+0),f
u2187:
	decfsz	((??_main+0)+0),f
	goto	u2187
	decfsz	((??_main+0)+0+1),f
	goto	u2187
	decfsz	((??_main+0)+0+2),f
	goto	u2187
	clrwdt
opt asmopt_on

	line	24
	
l1847:	
;7seg1.c: 24: PORTD=0b10010010;
	movlw	(092h)
	bcf	status, 5	;RP0=0, select bank0
	bcf	status, 6	;RP1=0, select bank0
	movwf	(8)	;volatile
	line	25
	
l1849:	
;7seg1.c: 25: _delay((unsigned long)((500)*(20000000/4000.0)));
	opt asmopt_off
movlw  13
movwf	((??_main+0)+0+2),f
movlw	163
movwf	((??_main+0)+0+1),f
	movlw	189
movwf	((??_main+0)+0),f
u2197:
	decfsz	((??_main+0)+0),f
	goto	u2197
	decfsz	((??_main+0)+0+1),f
	goto	u2197
	decfsz	((??_main+0)+0+2),f
	goto	u2197
	clrwdt
opt asmopt_on

	line	27
	
l1851:	
;7seg1.c: 27: PORTD=0b10000010;
	movlw	(082h)
	bcf	status, 5	;RP0=0, select bank0
	bcf	status, 6	;RP1=0, select bank0
	movwf	(8)	;volatile
	line	28
	
l1853:	
;7seg1.c: 28: _delay((unsigned long)((500)*(20000000/4000.0)));
	opt asmopt_off
movlw  13
movwf	((??_main+0)+0+2),f
movlw	163
movwf	((??_main+0)+0+1),f
	movlw	189
movwf	((??_main+0)+0),f
u2207:
	decfsz	((??_main+0)+0),f
	goto	u2207
	decfsz	((??_main+0)+0+1),f
	goto	u2207
	decfsz	((??_main+0)+0+2),f
	goto	u2207
	clrwdt
opt asmopt_on

	line	30
	
l1855:	
;7seg1.c: 30: PORTD=0b11111000;
	movlw	(0F8h)
	bcf	status, 5	;RP0=0, select bank0
	bcf	status, 6	;RP1=0, select bank0
	movwf	(8)	;volatile
	line	31
	
l1857:	
;7seg1.c: 31: _delay((unsigned long)((500)*(20000000/4000.0)));
	opt asmopt_off
movlw  13
movwf	((??_main+0)+0+2),f
movlw	163
movwf	((??_main+0)+0+1),f
	movlw	189
movwf	((??_main+0)+0),f
u2217:
	decfsz	((??_main+0)+0),f
	goto	u2217
	decfsz	((??_main+0)+0+1),f
	goto	u2217
	decfsz	((??_main+0)+0+2),f
	goto	u2217
	clrwdt
opt asmopt_on

	line	33
	
l1859:	
;7seg1.c: 33: PORTD=0b10000000;
	movlw	(080h)
	bcf	status, 5	;RP0=0, select bank0
	bcf	status, 6	;RP1=0, select bank0
	movwf	(8)	;volatile
	line	34
	
l1861:	
;7seg1.c: 34: _delay((unsigned long)((500)*(20000000/4000.0)));
	opt asmopt_off
movlw  13
movwf	((??_main+0)+0+2),f
movlw	163
movwf	((??_main+0)+0+1),f
	movlw	189
movwf	((??_main+0)+0),f
u2227:
	decfsz	((??_main+0)+0),f
	goto	u2227
	decfsz	((??_main+0)+0+1),f
	goto	u2227
	decfsz	((??_main+0)+0+2),f
	goto	u2227
	clrwdt
opt asmopt_on

	line	36
	
l1863:	
;7seg1.c: 36: PORTD=0b10010000;
	movlw	(090h)
	bcf	status, 5	;RP0=0, select bank0
	bcf	status, 6	;RP1=0, select bank0
	movwf	(8)	;volatile
	line	37
	
l1865:	
;7seg1.c: 37: _delay((unsigned long)((500)*(20000000/4000.0)));
	opt asmopt_off
movlw  13
movwf	((??_main+0)+0+2),f
movlw	163
movwf	((??_main+0)+0+1),f
	movlw	189
movwf	((??_main+0)+0),f
u2237:
	decfsz	((??_main+0)+0),f
	goto	u2237
	decfsz	((??_main+0)+0+1),f
	goto	u2237
	decfsz	((??_main+0)+0+2),f
	goto	u2237
	clrwdt
opt asmopt_on

	goto	l1827
	line	38
	
l688:	
	line	7
	goto	l1827
	
l689:	
	line	39
	
l690:	
	global	start
	ljmp	start
	opt stack 0
GLOBAL	__end_of_main
	__end_of_main:
;; =============== function _main ends ============

	signat	_main,88
psect	maintext
	global	btemp
	btemp set 07Eh

	DABS	1,126,2	;btemp
	global	wtemp0
	wtemp0 set btemp
	end
