opt subtitle "HI-TECH Software Omniscient Code Generator (Lite mode) build 7503"

opt pagewidth 120

	opt lm

	processor	16F877A
clrc	macro
	bcf	3,0
	endm
clrz	macro
	bcf	3,2
	endm
setc	macro
	bsf	3,0
	endm
setz	macro
	bsf	3,2
	endm
skipc	macro
	btfss	3,0
	endm
skipz	macro
	btfss	3,2
	endm
skipnc	macro
	btfsc	3,0
	endm
skipnz	macro
	btfsc	3,2
	endm
indf	equ	0
indf0	equ	0
pc	equ	2
pcl	equ	2
status	equ	3
fsr	equ	4
fsr0	equ	4
c	equ	1
z	equ	0
pclath	equ	10
# 2 "G:\PIC ass\Timer\Timer1\timer1_100msdelay.c"
	psect config,class=CONFIG,delta=2 ;#
# 2 "G:\PIC ass\Timer\Timer1\timer1_100msdelay.c"
	dw 0x1f7a ;#
	FNCALL	_main,_delay
	FNROOT	_main
	global	_TMR1H
psect	text60,local,class=CODE,delta=2
global __ptext60
__ptext60:
_TMR1H	set	15
	global	_TMR1L
_TMR1L	set	14
	global	_RD0
_RD0	set	64
	global	_T1CKPS0
_T1CKPS0	set	132
	global	_T1CKPS1
_T1CKPS1	set	133
	global	_TMR1CS
_TMR1CS	set	129
	global	_TMR1IF
_TMR1IF	set	96
	global	_TMR1ON
_TMR1ON	set	128
	global	_TRISD
_TRISD	set	136
	file	"timer1_delay_100ms.as"
	line	#
psect cinit,class=CODE,delta=2
global start_initialization
start_initialization:

psect cinit,class=CODE,delta=2
global end_of_initialization

;End of C runtime variable initialization code

end_of_initialization:
clrf status
ljmp _main	;jump to C main() function
psect	cstackCOMMON,class=COMMON,space=1
global __pcstackCOMMON
__pcstackCOMMON:
	global	?_delay
?_delay:	; 0 bytes @ 0x0
	global	??_delay
??_delay:	; 0 bytes @ 0x0
	global	?_main
?_main:	; 0 bytes @ 0x0
	global	??_main
??_main:	; 0 bytes @ 0x0
;;Data sizes: Strings 0, constant 0, data 0, bss 0, persistent 0 stack 0
;;Auto spaces:   Size  Autos    Used
;; COMMON          14      0       0
;; BANK0           80      0       0
;; BANK1           80      0       0
;; BANK3           96      0       0
;; BANK2           96      0       0

;;
;; Pointer list with targets:



;;
;; Critical Paths under _main in COMMON
;;
;;   None.
;;
;; Critical Paths under _main in BANK0
;;
;;   None.
;;
;; Critical Paths under _main in BANK1
;;
;;   None.
;;
;; Critical Paths under _main in BANK3
;;
;;   None.
;;
;; Critical Paths under _main in BANK2
;;
;;   None.

;;
;;Main: autosize = 0, tempsize = 0, incstack = 0, save=0
;;

;;
;;Call Graph Tables:
;;
;; ---------------------------------------------------------------------------------
;; (Depth) Function   	        Calls       Base Space   Used Autos Params    Refs
;; ---------------------------------------------------------------------------------
;; (0) _main                                                 0     0      0       0
;;                              _delay
;; ---------------------------------------------------------------------------------
;; (1) _delay                                                0     0      0       0
;; ---------------------------------------------------------------------------------
;; Estimated maximum stack depth 1
;; ---------------------------------------------------------------------------------

;; Call Graph Graphs:

;; _main (ROOT)
;;   _delay
;;

;; Address spaces:

;;Name               Size   Autos  Total    Cost      Usage
;;BITCOMMON            E      0       0       0        0.0%
;;EEDATA             100      0       0       0        0.0%
;;NULL                 0      0       0       0        0.0%
;;CODE                 0      0       0       0        0.0%
;;COMMON               E      0       0       1        0.0%
;;BITSFR0              0      0       0       1        0.0%
;;SFR0                 0      0       0       1        0.0%
;;BITSFR1              0      0       0       2        0.0%
;;SFR1                 0      0       0       2        0.0%
;;STACK                0      0       1       2        0.0%
;;ABS                  0      0       0       3        0.0%
;;BITBANK0            50      0       0       4        0.0%
;;BITSFR3              0      0       0       4        0.0%
;;SFR3                 0      0       0       4        0.0%
;;BANK0               50      0       0       5        0.0%
;;BITSFR2              0      0       0       5        0.0%
;;SFR2                 0      0       0       5        0.0%
;;BITBANK1            50      0       0       6        0.0%
;;BANK1               50      0       0       7        0.0%
;;BITBANK3            60      0       0       8        0.0%
;;BANK3               60      0       0       9        0.0%
;;BITBANK2            60      0       0      10        0.0%
;;BANK2               60      0       0      11        0.0%
;;DATA                 0      0       0      12        0.0%

	global	_main
psect	maintext,global,class=CODE,delta=2
global __pmaintext
__pmaintext:

;; *************** function _main *****************
;; Defined at:
;;		line 6 in file "G:\PIC ass\Timer\Timer1\timer1_100msdelay.c"
;; Parameters:    Size  Location     Type
;;		None
;; Auto vars:     Size  Location     Type
;;		None
;; Return value:  Size  Location     Type
;;		None               void
;; Registers used:
;;		wreg, status,2, status,0, pclath, cstack
;; Tracked objects:
;;		On entry : 17F/0
;;		On exit  : 0/0
;;		Unchanged: 0/0
;; Data sizes:     COMMON   BANK0   BANK1   BANK3   BANK2
;;      Params:         0       0       0       0       0
;;      Locals:         0       0       0       0       0
;;      Temps:          0       0       0       0       0
;;      Totals:         0       0       0       0       0
;;Total ram usage:        0 bytes
;; Hardware stack levels required when called:    1
;; This function calls:
;;		_delay
;; This function is called by:
;;		Startup code after reset
;; This function uses a non-reentrant model
;;
psect	maintext
	file	"G:\PIC ass\Timer\Timer1\timer1_100msdelay.c"
	line	6
	global	__size_of_main
	__size_of_main	equ	__end_of_main-_main
	
_main:	
	opt	stack 7
; Regs used in _main: [wreg+status,2+status,0+pclath+cstack]
	line	7
	
l1837:	
;timer1_100msdelay.c: 7: TRISD=0;
	bsf	status, 5	;RP0=1, select bank1
	bcf	status, 6	;RP1=0, select bank1
	clrf	(136)^080h	;volatile
	goto	l1839
	line	8
;timer1_100msdelay.c: 8: while(1)
	
l687:	
	line	10
	
l1839:	
;timer1_100msdelay.c: 9: {
;timer1_100msdelay.c: 10: RD0=1;
	bcf	status, 5	;RP0=0, select bank0
	bcf	status, 6	;RP1=0, select bank0
	bsf	(64/8),(64)&7
	line	11
	
l1841:	
;timer1_100msdelay.c: 11: delay();
	fcall	_delay
	line	12
	
l1843:	
;timer1_100msdelay.c: 12: RD0=0;
	bcf	status, 5	;RP0=0, select bank0
	bcf	status, 6	;RP1=0, select bank0
	bcf	(64/8),(64)&7
	line	13
	
l1845:	
;timer1_100msdelay.c: 13: delay();
	fcall	_delay
	goto	l1839
	line	14
	
l688:	
	line	8
	goto	l1839
	
l689:	
	line	15
	
l690:	
	global	start
	ljmp	start
	opt stack 0
GLOBAL	__end_of_main
	__end_of_main:
;; =============== function _main ends ============

	signat	_main,88
	global	_delay
psect	text61,local,class=CODE,delta=2
global __ptext61
__ptext61:

;; *************** function _delay *****************
;; Defined at:
;;		line 17 in file "G:\PIC ass\Timer\Timer1\timer1_100msdelay.c"
;; Parameters:    Size  Location     Type
;;		None
;; Auto vars:     Size  Location     Type
;;		None
;; Return value:  Size  Location     Type
;;		None               void
;; Registers used:
;;		wreg
;; Tracked objects:
;;		On entry : 0/0
;;		On exit  : 0/0
;;		Unchanged: 0/0
;; Data sizes:     COMMON   BANK0   BANK1   BANK3   BANK2
;;      Params:         0       0       0       0       0
;;      Locals:         0       0       0       0       0
;;      Temps:          0       0       0       0       0
;;      Totals:         0       0       0       0       0
;;Total ram usage:        0 bytes
;; Hardware stack levels used:    1
;; This function calls:
;;		Nothing
;; This function is called by:
;;		_main
;; This function uses a non-reentrant model
;;
psect	text61
	file	"G:\PIC ass\Timer\Timer1\timer1_100msdelay.c"
	line	17
	global	__size_of_delay
	__size_of_delay	equ	__end_of_delay-_delay
	
_delay:	
	opt	stack 7
; Regs used in _delay: [wreg]
	line	18
	
l1065:	
;timer1_100msdelay.c: 18: T1CKPS1=1;
	bcf	status, 5	;RP0=0, select bank0
	bcf	status, 6	;RP1=0, select bank0
	bsf	(133/8),(133)&7
	line	19
;timer1_100msdelay.c: 19: T1CKPS0=1;
	bsf	(132/8),(132)&7
	line	20
;timer1_100msdelay.c: 20: TMR1CS=0;
	bcf	(129/8),(129)&7
	line	21
	
l1067:	
;timer1_100msdelay.c: 21: TMR1H=0x0B;
	movlw	(0Bh)
	movwf	(15)	;volatile
	line	22
;timer1_100msdelay.c: 22: TMR1L=0xDC;
	movlw	(0DCh)
	movwf	(14)	;volatile
	line	23
	
l1069:	
;timer1_100msdelay.c: 23: TMR1ON=1;
	bsf	(128/8),(128)&7
	line	24
;timer1_100msdelay.c: 24: while(!TMR1IF);
	goto	l693
	
l694:	
	
l693:	
	btfss	(96/8),(96)&7
	goto	u11
	goto	u10
u11:
	goto	l693
u10:
	
l695:	
	line	25
;timer1_100msdelay.c: 25: TMR1IF=0;
	bcf	(96/8),(96)&7
	line	26
;timer1_100msdelay.c: 26: TMR1ON=0;
	bcf	(128/8),(128)&7
	line	28
	
l696:	
	return
	opt stack 0
GLOBAL	__end_of_delay
	__end_of_delay:
;; =============== function _delay ends ============

	signat	_delay,88
psect	text62,local,class=CODE,delta=2
global __ptext62
__ptext62:
	global	btemp
	btemp set 07Eh

	DABS	1,126,2	;btemp
	global	wtemp0
	wtemp0 set btemp
	end
